; Function Attrs: mustprogress uwtable
define dso_local void @_ZN3net19QuicStreamSequencer19FlushBufferedFramesEv(ptr noundef nonnull align 8 dereferenceable(169) %this) local_unnamed_addr #0 align 2 {
entry:
  %buffered_frames_ = getelementptr inbounds i8, ptr %this, i64 16
  %call = tail call noundef i64 @_ZN3net25QuicStreamSequencerBuffer19FlushBufferedFramesEv(ptr noundef nonnull align 8 dereferenceable(120) %buffered_frames_)
  %stream_ = getelementptr inbounds i8, ptr %this, i64 8
  %0 = load ptr, ptr %stream_, align 8
  tail call void @_ZN3net18ReliableQuicStream16AddBytesConsumedEm(ptr noundef nonnull align 8 dereferenceable(377) %0, i64 noundef %call)
  %blocked_.i = getelementptr inbounds i8, ptr %this, i64 144
  %1 = load i8, ptr %blocked_.i, align 8
  %2 = and i8 %1, 1
  %tobool.not.i = icmp eq i8 %2, 0
  br i1 %tobool.not.i, label %lor.lhs.false.i, label %_ZN3net19QuicStreamSequencer16MaybeCloseStreamEv.exit

lor.lhs.false.i:                                  ; preds = %entry
  %call.i.i = tail call noundef i64 @_ZNK3net25QuicStreamSequencerBuffer13BytesConsumedEv(ptr noundef nonnull align 8 dereferenceable(120) %buffered_frames_)
  %close_offset_.i.i = getelementptr inbounds i8, ptr %this, i64 136
  %3 = load i64, ptr %close_offset_.i.i, align 8
  %cmp.i.not.i = icmp ult i64 %call.i.i, %3
  br i1 %cmp.i.not.i, label %_ZN3net19QuicStreamSequencer16MaybeCloseStreamEv.exit, label %if.end.i

if.end.i:                                         ; preds = %lor.lhs.false.i
  %ignore_read_data_.i = getelementptr inbounds i8, ptr %this, i64 168
  %4 = load i8, ptr %ignore_read_data_.i, align 8
  %5 = and i8 %4, 1
  %tobool2.not.i = icmp eq i8 %5, 0
  %6 = load ptr, ptr %stream_, align 8
  br i1 %tobool2.not.i, label %if.else.i, label %if.then3.i

if.then3.i:                                       ; preds = %if.end.i
  tail call void @_ZN3net18ReliableQuicStream9OnFinReadEv(ptr noundef nonnull align 8 dereferenceable(377) %6)
  br label %if.end5.i

if.else.i:                                        ; preds = %if.end.i
  %vtable.i = load ptr, ptr %6, align 8
  %vfn.i = getelementptr inbounds i8, ptr %vtable.i, i64 56
  %7 = load ptr, ptr %vfn.i, align 8
  tail call void %7(ptr noundef nonnull align 8 dereferenceable(377) %6)
  br label %if.end5.i

if.end5.i:                                        ; preds = %if.else.i, %if.then3.i
  tail call void @_ZN3net25QuicStreamSequencerBuffer5ClearEv(ptr noundef nonnull align 8 dereferenceable(120) %buffered_frames_)
  br label %_ZN3net19QuicStreamSequencer16MaybeCloseStreamEv.exit

_ZN3net19QuicStreamSequencer16MaybeCloseStreamEv.exit: ; preds = %entry, %lor.lhs.false.i, %if.end5.i
  ret void
}